(lp0
ccopy_reg
_reconstructor
p1
(croom
room
p2
c__builtin__
object
p3
Ntp4
Rp5
(dp6
S'inventory'
p7
(lp8
sS'descriptors'
p9
(lp10
sS'name'
p11
S'Basement'
p12
sS'exits'
p13
(lp14
NaI1
aNaNasS'desc'
p15
S'You are in a dark cold basement.  It smells of shit.'
p16
sbag1
(g2
g3
Ntp17
Rp18
(dp19
g11
S'unnamed'
p20
sg9
(lp21
sg7
(lp22
sg13
(lp23
I0
aNaNaNasg15
S'no description'
p24
sba.