(lp0
ccopy_reg
_reconstructor
p1
(croom
room
p2
c__builtin__
object
p3
Ntp4
Rp5
(dp6
S'name'
p7
S'Basement'
p8
sS'inventory'
p9
(lp10
sS'exits'
p11
(lp12
NaI1
aNaNasS'desc'
p13
S'You are in a dark cold basement.  It smells of shit.'
p14
sbag1
(g2
g3
Ntp15
Rp16
(dp17
g9
(lp18
sg7
S'unnamed'
p19
sg11
(lp20
I0
aNaNaNasg13
S'no description'
p21
sba.