(lp0
ccopy_reg
_reconstructor
p1
(croom
room
p2
c__builtin__
object
p3
Ntp4
Rp5
(dp6
S'descriptors'
p7
(lp8
sS'name'
p9
S'Basement'
p10
sS'inventory'
p11
(lp12
sS'exits'
p13
(lp14
NaI1
aNaI2
asS'desc'
p15
S'You are in a gross basement.  It smells of poop.'
p16
sbag1
(g2
g3
Ntp17
Rp18
(dp19
g7
(lp20
sg11
(lp21
sg9
S'unnamed'
p22
sg13
(lp23
I0
aNaNaNasg15
S'no description'
p24
sbag1
(g2
g3
Ntp25
Rp26
(dp27
g7
(lp28
sg11
(lp29
sg9
S'Washroom'
p30
sg13
(lp31
NaNaI0
aNasg15
S'You are standing in a filthly washroom.  Grime and scraps of cloth and other refuse litter the floor.'
p32
sba.